#include <math.h>
#include <stdio.h>
#include <stdlib.h>
#include <string.h>

int main(){
	int n,k,i;
	scanf("%d%d",&n,&k);
	int sz[1000],x=0;
	for(i=0;i<n;i++){
		scanf("%d",&sz[i]);
	}
	for(i=0;i<n;i++){
		for(int j=i+1;j<n;j++){
			if(sz[i]+sz[j]==k){
				x=1;
				break;
			};
			
		}
	}
	if(x==1){
		printf("yes\n");
	}else{printf("no\n");}
return 0;
}